; Function Attrs: nofree norecurse nosync nounwind memory(readwrite, inaccessiblemem: none) uwtable
define internal fastcc noundef ptr @block_merge_next(ptr noundef %0, ptr noundef returned %1) unnamed_addr #6 {
  %3 = getelementptr i8, ptr %1, i64 8
  %.val.i = load i64, ptr %3, align 8, !tbaa !15
  %4 = icmp ugt i64 %.val.i, 3
  br i1 %4, label %block_next.exit, label %.preheader.i

.preheader.i:                                     ; preds = %2, %.preheader.i
  br label %.preheader.i

block_next.exit:                                  ; preds = %2
  %5 = and i64 %.val.i, -4
  %6 = getelementptr inbounds nuw i8, ptr %1, i64 16
  %7 = ptrtoint ptr %6 to i64
  %8 = add i64 %7, -8
  %9 = add i64 %5, %8
  %10 = inttoptr i64 %9 to ptr
  %.not = icmp eq i64 %9, 0
  br i1 %.not, label %.preheader, label %11

.preheader:                                       ; preds = %block_next.exit, %.preheader
  br label %.preheader

11:                                               ; preds = %block_next.exit
  %12 = getelementptr i8, ptr %10, i64 8
  %.val = load i64, ptr %12, align 8, !tbaa !15
  %13 = trunc i64 %.val to i32
  %14 = and i32 %13, 1
  %.not10 = icmp eq i32 %14, 0
  br i1 %.not10, label %67, label %15

15:                                               ; preds = %11
  %16 = icmp ult i64 %.val, 256
  br i1 %16, label %17, label %19

17:                                               ; preds = %15
  %18 = lshr i32 %13, 3
  br label %mapping_insert.exit.i

19:                                               ; preds = %15
  %20 = and i64 %.val, -4
  %.not.i.i.i = icmp ult i64 %.val, 4294967296
  %21 = lshr i64 %.val, 32
  %.sink.i.i.i = select i1 %.not.i.i.i, i64 %20, i64 %21
  %.sink7.i.i.i = select i1 %.not.i.i.i, i32 31, i32 63
  %22 = trunc nuw i64 %.sink.i.i.i to i32
  %23 = tail call range(i32 0, 33) i32 @llvm.ctlz.i32(i32 %22, i1 true)
  %24 = xor i32 %23, %.sink7.i.i.i
  %25 = add nsw i32 %24, -5
  %26 = zext nneg i32 %25 to i64
  %27 = lshr i64 %20, %26
  %28 = trunc i64 %27 to i32
  %29 = xor i32 %28, 32
  %30 = add nsw i32 %24, -7
  br label %mapping_insert.exit.i

mapping_insert.exit.i:                            ; preds = %19, %17
  %.09.i.i = phi i32 [ 0, %17 ], [ %30, %19 ]
  %.0.i.i = phi i32 [ %18, %17 ], [ %29, %19 ]
  %31 = getelementptr inbounds nuw i8, ptr %10, i64 24
  %32 = load ptr, ptr %31, align 8, !tbaa !20
  %33 = getelementptr inbounds nuw i8, ptr %10, i64 16
  %34 = load ptr, ptr %33, align 8, !tbaa !16
  %.not.i.i = icmp eq ptr %32, null
  br i1 %.not.i.i, label %.preheader.i.i, label %35

.preheader.i.i:                                   ; preds = %mapping_insert.exit.i, %.preheader.i.i
  br label %.preheader.i.i

35:                                               ; preds = %mapping_insert.exit.i
  %.not26.i.i = icmp eq ptr %34, null
  br i1 %.not26.i.i, label %.preheader28.i.i, label %36

.preheader28.i.i:                                 ; preds = %35, %.preheader28.i.i
  br label %.preheader28.i.i

36:                                               ; preds = %35
  %37 = getelementptr inbounds nuw i8, ptr %34, i64 24
  store ptr %32, ptr %37, align 8, !tbaa !20
  %38 = getelementptr inbounds nuw i8, ptr %32, i64 16
  store ptr %34, ptr %38, align 8, !tbaa !16
  %39 = getelementptr inbounds nuw i8, ptr %0, i64 72
  %40 = sext i32 %.09.i.i to i64
  %41 = sext i32 %.0.i.i to i64
  %42 = getelementptr inbounds [9 x [32 x ptr]], ptr %39, i64 0, i64 %40, i64 %41
  %43 = load ptr, ptr %42, align 8, !tbaa !12
  %44 = icmp eq ptr %43, %10
  br i1 %44, label %45, label %block_remove.exit

45:                                               ; preds = %36
  store ptr %34, ptr %42, align 8, !tbaa !12
  %46 = icmp eq ptr %34, %0
  br i1 %46, label %47, label %block_remove.exit

47:                                               ; preds = %45
  %48 = shl nuw i32 1, %.0.i.i
  %49 = xor i32 %48, -1
  %50 = getelementptr inbounds nuw i8, ptr %0, i64 36
  %51 = getelementptr inbounds [9 x i32], ptr %50, i64 0, i64 %40
  %52 = load i32, ptr %51, align 4, !tbaa !11
  %53 = and i32 %52, %49
  store i32 %53, ptr %51, align 4, !tbaa !11
  %.not27.i.i = icmp eq i32 %53, 0
  br i1 %.not27.i.i, label %54, label %block_remove.exit

54:                                               ; preds = %47
  %55 = shl nuw i32 1, %.09.i.i
  %56 = xor i32 %55, -1
  %57 = getelementptr inbounds nuw i8, ptr %0, i64 32
  %58 = load i32, ptr %57, align 8, !tbaa !3
  %59 = and i32 %58, %56
  store i32 %59, ptr %57, align 8, !tbaa !3
  br label %block_remove.exit

block_remove.exit:                                ; preds = %54, %47, %45, %36
  %60 = and i64 %.val, -4
  %61 = add i64 %.val.i, 8
  %62 = add i64 %61, %60
  store i64 %62, ptr %3, align 8, !tbaa !15
  %63 = icmp ugt i64 %62, 3
  br i1 %63, label %block_absorb.exit, label %.preheader.i.i.i

.preheader.i.i.i:                                 ; preds = %block_remove.exit, %.preheader.i.i.i
  br label %.preheader.i.i.i

block_absorb.exit:                                ; preds = %block_remove.exit
  %64 = and i64 %62, -4
  %65 = add i64 %64, %8
  %66 = inttoptr i64 %65 to ptr
  store ptr %1, ptr %66, align 8, !tbaa !21
  br label %67

67:                                               ; preds = %block_absorb.exit, %11
  ret ptr %1
}